target datalayout = "e-m:e-p270:32:32-p271:32:32-p272:64:64-i64:64-i128:128-f80:128-n8:16:32:64-S128"
target triple = "x86_64-unknown-linux-gnu"

%class.b2ChainShape = type <{ %class.b2Shape, ptr, i32, %struct.b2Vec2, %struct.b2Vec2, [4 x i8] }>
%class.b2Shape = type { ptr, i32, float }
%struct.b2Vec2 = type { float, float }

; Function Attrs: mustprogress uwtable
define linkonce_odr hidden noundef ptr @_Z7b2Alloci(i32 noundef %size) #1 comdat {
entry:
  %size.addr = alloca i32, align 4
  store i32 %size, ptr %size.addr, align 4
  %0 = load i32, ptr %size.addr, align 4
  %call = call noundef ptr @_Z15b2Alloc_Defaulti(i32 noundef %0)
  ret ptr %call
}

; Function Attrs: mustprogress uwtable
define void @_ZN12b2ChainShape10CreateLoopEPK6b2Vec2i(ptr noundef nonnull align 8 dereferenceable(44) %this, ptr noundef %vertices, i32 noundef %count) #1 align 2 {
entry:
  %this.addr = alloca ptr, align 8
  %vertices.addr = alloca ptr, align 8
  %count.addr = alloca i32, align 4
  %i = alloca i32, align 4
  %v1 = alloca %struct.b2Vec2, align 4
  %v2 = alloca %struct.b2Vec2, align 4
  store ptr %this, ptr %this.addr, align 8
  store ptr %vertices, ptr %vertices.addr, align 8
  store i32 %count, ptr %count.addr, align 4
  %this1 = load ptr, ptr %this.addr, align 8
  %0 = load i32, ptr %count.addr, align 4
  %cmp = icmp slt i32 %0, 3
  br i1 %cmp, label %if.then, label %if.end

if.then:                                          ; preds = %entry
  br label %return

if.end:                                           ; preds = %entry
  store i32 1, ptr %i, align 4
  br label %for.cond

for.cond:                                         ; preds = %for.inc, %if.end
  %1 = load i32, ptr %i, align 4
  %2 = load i32, ptr %count.addr, align 4
  %cmp2 = icmp slt i32 %1, %2
  br i1 %cmp2, label %for.body, label %for.end

for.body:                                         ; preds = %for.cond
  %3 = load ptr, ptr %vertices.addr, align 8
  %4 = load i32, ptr %i, align 4
  %sub = sub nsw i32 %4, 1
  %idxprom = sext i32 %sub to i64
  %arrayidx = getelementptr inbounds %struct.b2Vec2, ptr %3, i64 %idxprom
  call void @llvm.memcpy.p0.p0.i64(ptr align 4 %v1, ptr align 4 %arrayidx, i64 8, i1 false)
  %5 = load ptr, ptr %vertices.addr, align 8
  %6 = load i32, ptr %i, align 4
  %idxprom3 = sext i32 %6 to i64
  %arrayidx4 = getelementptr inbounds %struct.b2Vec2, ptr %5, i64 %idxprom3
  call void @llvm.memcpy.p0.p0.i64(ptr align 4 %v2, ptr align 4 %arrayidx4, i64 8, i1 false)
  br label %for.inc

for.inc:                                          ; preds = %for.body
  %7 = load i32, ptr %i, align 4
  %inc = add nsw i32 %7, 1
  store i32 %inc, ptr %i, align 4
  br label %for.cond, !llvm.loop !4

for.end:                                          ; preds = %for.cond
  %8 = load i32, ptr %count.addr, align 4
  %add = add nsw i32 %8, 1
  %m_count = getelementptr inbounds %class.b2ChainShape, ptr %this1, i32 0, i32 2
  store i32 %add, ptr %m_count, align 8
  %m_count5 = getelementptr inbounds %class.b2ChainShape, ptr %this1, i32 0, i32 2
  %9 = load i32, ptr %m_count5, align 8
  %conv = sext i32 %9 to i64
  %mul = mul i64 %conv, 8
  %conv6 = trunc i64 %mul to i32
  %call = call noundef ptr @_Z7b2Alloci(i32 noundef %conv6)
  %m_vertices = getelementptr inbounds %class.b2ChainShape, ptr %this1, i32 0, i32 1
  store ptr %call, ptr %m_vertices, align 8
  %m_vertices7 = getelementptr inbounds %class.b2ChainShape, ptr %this1, i32 0, i32 1
  %10 = load ptr, ptr %m_vertices7, align 8
  %11 = load ptr, ptr %vertices.addr, align 8
  %12 = load i32, ptr %count.addr, align 4
  %conv8 = sext i32 %12 to i64
  %mul9 = mul i64 %conv8, 8
  call void @llvm.memcpy.p0.p0.i64(ptr align 4 %10, ptr align 4 %11, i64 %mul9, i1 false)
  %m_vertices10 = getelementptr inbounds %class.b2ChainShape, ptr %this1, i32 0, i32 1
  %13 = load ptr, ptr %m_vertices10, align 8
  %arrayidx11 = getelementptr inbounds %struct.b2Vec2, ptr %13, i64 0
  %m_vertices12 = getelementptr inbounds %class.b2ChainShape, ptr %this1, i32 0, i32 1
  %14 = load ptr, ptr %m_vertices12, align 8
  %15 = load i32, ptr %count.addr, align 4
  %idxprom13 = sext i32 %15 to i64
  %arrayidx14 = getelementptr inbounds %struct.b2Vec2, ptr %14, i64 %idxprom13
  call void @llvm.memcpy.p0.p0.i64(ptr align 4 %arrayidx14, ptr align 4 %arrayidx11, i64 8, i1 false)
  %m_vertices15 = getelementptr inbounds %class.b2ChainShape, ptr %this1, i32 0, i32 1
  %16 = load ptr, ptr %m_vertices15, align 8
  %m_count16 = getelementptr inbounds %class.b2ChainShape, ptr %this1, i32 0, i32 2
  %17 = load i32, ptr %m_count16, align 8
  %sub17 = sub nsw i32 %17, 2
  %idxprom18 = sext i32 %sub17 to i64
  %arrayidx19 = getelementptr inbounds %struct.b2Vec2, ptr %16, i64 %idxprom18
  %m_prevVertex = getelementptr inbounds %class.b2ChainShape, ptr %this1, i32 0, i32 3
  call void @llvm.memcpy.p0.p0.i64(ptr align 4 %m_prevVertex, ptr align 4 %arrayidx19, i64 8, i1 false)
  %m_vertices20 = getelementptr inbounds %class.b2ChainShape, ptr %this1, i32 0, i32 1
  %18 = load ptr, ptr %m_vertices20, align 8
  %arrayidx21 = getelementptr inbounds %struct.b2Vec2, ptr %18, i64 1
  %m_nextVertex = getelementptr inbounds %class.b2ChainShape, ptr %this1, i32 0, i32 4
  call void @llvm.memcpy.p0.p0.i64(ptr align 4 %m_nextVertex, ptr align 4 %arrayidx21, i64 8, i1 false)
  br label %return

return:                                           ; preds = %for.end, %if.then
  ret void
}