; Function Attrs: mustprogress uwtable
define void @_ZN12b2ChainShape10CreateLoopEPK6b2Vec2i(ptr nocapture noundef nonnull align 8 dereferenceable(44) %this, ptr nocapture noundef readonly %vertices, i32 noundef %count) local_unnamed_addr #1 align 2 {
entry:
  %cmp = icmp slt i32 %count, 3
  br i1 %cmp, label %return, label %for.cond.preheader

for.cond.preheader:                               ; preds = %entry
  %add = add nuw nsw i32 %count, 1
  %m_count = getelementptr inbounds i8, ptr %this, i64 24
  store i32 %add, ptr %m_count, align 8
  %mul = shl i32 %add, 3
  %call.i = tail call noundef ptr @_Z15b2Alloc_Defaulti(i32 noundef %mul)
  %m_vertices = getelementptr inbounds i8, ptr %this, i64 16
  store ptr %call.i, ptr %m_vertices, align 8
  %conv8 = zext nneg i32 %count to i64
  %mul9 = shl nuw nsw i64 %conv8, 3
  tail call void @llvm.memcpy.p0.p0.i64(ptr align 4 %call.i, ptr align 4 %vertices, i64 %mul9, i1 false)
  %0 = load ptr, ptr %m_vertices, align 8
  %arrayidx14 = getelementptr inbounds %struct.b2Vec2, ptr %0, i64 %conv8
  %1 = load i64, ptr %0, align 4
  store i64 %1, ptr %arrayidx14, align 4
  %2 = load ptr, ptr %m_vertices, align 8
  %3 = load i32, ptr %m_count, align 8
  %4 = sext i32 %3 to i64
  %5 = getelementptr %struct.b2Vec2, ptr %2, i64 %4
  %arrayidx19 = getelementptr i8, ptr %5, i64 -16
  %m_prevVertex = getelementptr inbounds i8, ptr %this, i64 28
  %6 = load i64, ptr %arrayidx19, align 4
  store i64 %6, ptr %m_prevVertex, align 4
  %arrayidx21 = getelementptr inbounds i8, ptr %2, i64 8
  %m_nextVertex = getelementptr inbounds i8, ptr %this, i64 36
  %7 = load i64, ptr %arrayidx21, align 4
  store i64 %7, ptr %m_nextVertex, align 4
  br label %return

return:                                           ; preds = %entry, %for.cond.preheader
  ret void
}